; Function Attrs: nounwind uwtable
define range(i32 -1202, 1) i32 @decdiv(ptr noundef %0, ptr noundef %1, ptr noundef %2) local_unnamed_addr #0 {
  %4 = tail call ptr @__errno_location() #15
  store i32 0, ptr %4, align 4
  %5 = tail call fastcc i32 @deccall3(ptr noundef %0, ptr noundef %1, ptr noundef %2, ptr noundef nonnull @PGTYPESnumeric_div)
  %.not = icmp eq i32 %5, 0
  br i1 %.not, label %8, label %6

6:                                                ; preds = %3
  %7 = load i32, ptr %4, align 4
  %switch.selectcmp = icmp eq i32 %7, 301
  %switch.select = select i1 %switch.selectcmp, i32 -1200, i32 -1201
  %switch.selectcmp4 = icmp eq i32 %7, 303
  %switch.select5 = select i1 %switch.selectcmp4, i32 -1202, i32 %switch.select
  br label %8

8:                                                ; preds = %3, %6
  %.0 = phi i32 [ %switch.select5, %6 ], [ 0, %3 ]
  ret i32 %.0
}